; Function Attrs: mustprogress uwtable
define dso_local void @_ZN11HullLibrary9removeb2bEP14btHullTriangleS1_(ptr noundef nonnull readonly align 8 captures(none) dereferenceable(64) %0, ptr noundef %1, ptr noundef %2) local_unnamed_addr #4 align 2 {
  tail call void @_ZN11HullLibrary6b2bfixEP14btHullTriangleS1_(ptr noundef nonnull align 8 dereferenceable(64) %0, ptr noundef %1, ptr noundef %2)
  %4 = getelementptr inbounds nuw i8, ptr %1, i64 24
  %5 = load i32, ptr %4, align 4, !tbaa !58
  %6 = getelementptr inbounds nuw i8, ptr %0, i64 16
  %7 = load ptr, ptr %6, align 8, !tbaa !51
  %8 = sext i32 %5 to i64
  %9 = getelementptr inbounds ptr, ptr %7, i64 %8
  store ptr null, ptr %9, align 8, !tbaa !55
  tail call void @_Z21btAlignedFreeInternalPv(ptr noundef nonnull %1)
  %10 = getelementptr inbounds nuw i8, ptr %2, i64 24
  %11 = load i32, ptr %10, align 4, !tbaa !58
  %12 = load ptr, ptr %6, align 8, !tbaa !51
  %13 = sext i32 %11 to i64
  %14 = getelementptr inbounds ptr, ptr %12, i64 %13
  store ptr null, ptr %14, align 8, !tbaa !55
  tail call void @_Z21btAlignedFreeInternalPv(ptr noundef nonnull %2)
  ret void
}